; Function Attrs: mustprogress uwtable
define ptr @ucol_open_75(ptr noundef %loc, ptr noundef %status) local_unnamed_addr #1 personality ptr @__gxx_personality_v0 {
entry:
  %ref.tmp = alloca %"class.icu_75::Locale", align 8
  call void @_ZN6icu_756LocaleC1EPKcS2_S2_S2_(ptr noundef nonnull align 8 dereferenceable(217) %ref.tmp, ptr noundef %loc, ptr noundef null, ptr noundef null, ptr noundef null)
  %call = invoke noundef ptr @_ZN6icu_758Collator14createInstanceERKNS_6LocaleER10UErrorCode(ptr noundef nonnull align 8 dereferenceable(217) %ref.tmp, ptr noundef nonnull align 4 dereferenceable(4) %status)
          to label %invoke.cont unwind label %lpad

invoke.cont:                                      ; preds = %entry
  call void @_ZN6icu_756LocaleD1Ev(ptr noundef nonnull align 8 dereferenceable(217) %ref.tmp) #13
  %0 = load i32, ptr %status, align 4
  %cmp.i = icmp sgt i32 %0, 0
  %spec.select = select i1 %cmp.i, ptr null, ptr %call
  ret ptr %spec.select

lpad:                                             ; preds = %entry
  %1 = landingpad { ptr, i32 }
          cleanup
  call void @_ZN6icu_756LocaleD1Ev(ptr noundef nonnull align 8 dereferenceable(217) %ref.tmp) #13
  resume { ptr, i32 } %1
}